; Function Attrs: mustprogress nofree norecurse nosync nounwind willreturn memory(argmem: read) uwtable
define range(i32 0, 2) i32 @exisAssign(ptr noundef readonly captures(none) %0) local_unnamed_addr #10 {
  %2 = getelementptr inbounds nuw i8, ptr %0, i64 4
  %3 = load i32, ptr %2, align 4
  %4 = icmp eq i32 %3, 61
  br i1 %4, label %5, label %10

5:                                                ; preds = %1
  %6 = getelementptr inbounds nuw i8, ptr %0, i64 64
  %7 = load i32, ptr %6, align 8
  %8 = icmp eq i32 %7, 61
  %9 = zext i1 %8 to i32
  br label %10

10:                                               ; preds = %5, %1
  %11 = phi i32 [ 0, %1 ], [ %9, %5 ]
  ret i32 %11
}